; Function Attrs: mustprogress uwtable
define void @_ZN5faiss19OnDiskInvertedLists6resizeEmm(ptr noundef nonnull align 8 dereferenceable(156) %0, i64 noundef %1, i64 noundef %2) unnamed_addr #3 align 2 personality ptr @__gxx_personality_v0 {
  %4 = alloca i32, align 4
  %5 = alloca %"class.std::__cxx11::basic_string", align 8
  %6 = getelementptr inbounds i8, ptr %0, i64 128
  %7 = load i8, ptr %6, align 8
  %8 = and i8 %7, 1
  %.not = icmp eq i8 %8, 0
  br i1 %.not, label %25, label %9

9:                                                ; preds = %3
  call void @_ZNSt7__cxx1112basic_stringIcSt11char_traitsIcESaIcEEC1Ev(ptr noundef nonnull align 8 dereferenceable(32) %5) #16
  %10 = call i32 (ptr, i64, ptr, ...) @snprintf(ptr noundef null, i64 noundef 0, ptr noundef nonnull @.str.18, ptr noundef nonnull @.str.19) #16
  %11 = add nsw i32 %10, 1
  %12 = sext i32 %11 to i64
  invoke void @_ZNSt7__cxx1112basic_stringIcSt11char_traitsIcESaIcEE6resizeEm(ptr noundef nonnull align 8 dereferenceable(32) %5, i64 noundef %12)
          to label %13 unwind label %20

13:                                               ; preds = %9
  %14 = invoke noundef nonnull align 1 dereferenceable(1) ptr @_ZNSt7__cxx1112basic_stringIcSt11char_traitsIcESaIcEEixEm(ptr noundef nonnull align 8 dereferenceable(32) %5, i64 noundef 0)
          to label %15 unwind label %20

15:                                               ; preds = %13
  %16 = call noundef i64 @_ZNKSt7__cxx1112basic_stringIcSt11char_traitsIcESaIcEE4sizeEv(ptr noundef nonnull align 8 dereferenceable(32) %5) #16
  %17 = call i32 (ptr, i64, ptr, ...) @snprintf(ptr noundef nonnull %14, i64 noundef %16, ptr noundef nonnull @.str.18, ptr noundef nonnull @.str.19) #16
  %18 = call ptr @__cxa_allocate_exception(i64 40) #16
  invoke void @_ZN5faiss14FaissExceptionC1ERKNSt7__cxx1112basic_stringIcSt11char_traitsIcESaIcEEEPKcSA_i(ptr noundef nonnull align 8 dereferenceable(40) %18, ptr noundef nonnull align 8 dereferenceable(32) %5, ptr noundef nonnull @__PRETTY_FUNCTION__._ZN5faiss19OnDiskInvertedLists6resizeEmm, ptr noundef nonnull @.str.6, i32 noundef 433)
          to label %19 unwind label %22

19:                                               ; preds = %15
  invoke void @__cxa_throw(ptr nonnull %18, ptr nonnull @_ZTIN5faiss14FaissExceptionE, ptr nonnull @_ZN5faiss14FaissExceptionD2Ev) #25
          to label %43 unwind label %20

20:                                               ; preds = %19, %13, %9
  %21 = landingpad { ptr, i32 }
          cleanup
  br label %24

22:                                               ; preds = %15
  %23 = landingpad { ptr, i32 }
          cleanup
  call void @__cxa_free_exception(ptr %18) #16
  br label %24

24:                                               ; preds = %22, %20
  %.pn = phi { ptr, i32 } [ %21, %20 ], [ %23, %22 ]
  call void @_ZNSt7__cxx1112basic_stringIcSt11char_traitsIcESaIcEED1Ev(ptr noundef nonnull align 8 dereferenceable(32) %5) #16
  resume { ptr, i32 } %.pn

25:                                               ; preds = %3
  %26 = getelementptr inbounds i8, ptr %0, i64 136
  %27 = load ptr, ptr %26, align 8
  %28 = trunc i64 %1 to i32
  tail call void @_ZN5faiss10LockLevels6lock_1Ei(ptr noundef nonnull align 8 dereferenceable(246) %27, i32 noundef %28)
  tail call void @_ZN5faiss19OnDiskInvertedLists13resize_lockedEmm(ptr noundef nonnull align 8 dereferenceable(156) %0, i64 noundef %1, i64 noundef %2)
  %29 = load ptr, ptr %26, align 8
  call void @llvm.lifetime.start.p0(i64 4, ptr nonnull %4)
  store i32 %28, ptr %4, align 4
  %30 = tail call i32 @pthread_mutex_lock(ptr noundef nonnull %29) #16
  %31 = getelementptr inbounds i8, ptr %29, i64 184
  %32 = call noundef i64 @_ZNSt10_HashtableIiiSaIiENSt8__detail9_IdentityESt8equal_toIiESt4hashIiENS1_18_Mod_range_hashingENS1_20_Default_ranged_hashENS1_20_Prime_rehash_policyENS1_17_Hashtable_traitsILb0ELb1ELb1EEEE8_M_eraseESt17integral_constantIbLb1EERKi(ptr noundef nonnull align 8 dereferenceable(56) %31, ptr noundef nonnull align 4 dereferenceable(4) %4)
  %33 = getelementptr inbounds i8, ptr %29, i64 244
  %34 = load i8, ptr %33, align 4
  %35 = and i8 %34, 1
  %.not.i = icmp eq i8 %35, 0
  br i1 %.not.i, label %39, label %36

36:                                               ; preds = %25
  %37 = getelementptr inbounds i8, ptr %29, i64 136
  %38 = call i32 @pthread_cond_signal(ptr noundef nonnull %37) #16
  br label %_ZN5faiss10LockLevels8unlock_1Ei.exit

39:                                               ; preds = %25
  %40 = getelementptr inbounds i8, ptr %29, i64 40
  %41 = call i32 @pthread_cond_broadcast(ptr noundef nonnull %40) #16
  br label %_ZN5faiss10LockLevels8unlock_1Ei.exit

_ZN5faiss10LockLevels8unlock_1Ei.exit:            ; preds = %36, %39
  %42 = call i32 @pthread_mutex_unlock(ptr noundef nonnull %29) #16
  call void @llvm.lifetime.end.p0(i64 4, ptr nonnull %4)
  ret void

43:                                               ; preds = %19
  unreachable
}